target datalayout = "e-m:e-p270:32:32-p271:32:32-p272:64:64-i64:64-i128:128-f80:128-n8:16:32:64-S128"
target triple = "x86_64-pc-linux-gnu"

%struct.CTState = type { ptr, i32, i32, ptr, ptr, ptr, %struct.CCallback, [128 x i16] }
%struct.CCallback = type { [8 x %union.FPRCBArg], [8 x i64], ptr, ptr, ptr, i32, i32, i32 }
%union.FPRCBArg = type { double }
%struct.CType = type { i32, i32, i16, i16, %struct.GCRef }
%struct.GCRef = type { i64 }
%struct.GCstr = type { %struct.GCRef, i8, i8, i8, i8, i32, i32, i32 }
%struct.CTRepr = type { ptr, ptr, ptr, ptr, i32, i32, [512 x i8] }

@.str.23 = private unnamed_addr constant [9 x i8] c"volatile\00", align 1
@.str.24 = private unnamed_addr constant [6 x i8] c"const\00", align 1

; Function Attrs: nounwind uwtable
define internal void @ctype_prepqual(ptr noundef %0, i32 noundef %1) #0 {
  %3 = alloca ptr, align 8
  %4 = alloca i32, align 4
  store ptr %0, ptr %3, align 8, !tbaa !81
  store i32 %1, ptr %4, align 4, !tbaa !21
  %5 = load i32, ptr %4, align 4, !tbaa !21
  %6 = and i32 %5, 16777216
  %7 = icmp ne i32 %6, 0
  br i1 %7, label %8, label %10

8:                                                ; preds = %2
  %9 = load ptr, ptr %3, align 8, !tbaa !81
  call void @ctype_prepstr(ptr noundef %9, ptr noundef @.str.23, i32 noundef 8)
  br label %10

10:                                               ; preds = %8, %2
  %11 = load i32, ptr %4, align 4, !tbaa !21
  %12 = and i32 %11, 33554432
  %13 = icmp ne i32 %12, 0
  br i1 %13, label %14, label %16

14:                                               ; preds = %10
  %15 = load ptr, ptr %3, align 8, !tbaa !81
  call void @ctype_prepstr(ptr noundef %15, ptr noundef @.str.24, i32 noundef 5)
  br label %16

16:                                               ; preds = %14, %10
  ret void
}

; Function Attrs: nounwind uwtable
define internal void @ctype_prepnum(ptr noundef %0, i32 noundef %1) #0 {
  %3 = alloca ptr, align 8
  %4 = alloca i32, align 4
  %5 = alloca ptr, align 8
  %6 = alloca i32, align 4
  store ptr %0, ptr %3, align 8, !tbaa !81
  store i32 %1, ptr %4, align 4, !tbaa !21
  call void @llvm.lifetime.start.p0(i64 8, ptr %5) #8
  %7 = load ptr, ptr %3, align 8, !tbaa !81
  %8 = getelementptr inbounds nuw %struct.CTRepr, ptr %7, i32 0, i32 0
  %9 = load ptr, ptr %8, align 8, !tbaa !65
  store ptr %9, ptr %5, align 8, !tbaa !83
  %10 = load ptr, ptr %3, align 8, !tbaa !81
  %11 = getelementptr inbounds nuw %struct.CTRepr, ptr %10, i32 0, i32 6
  %12 = getelementptr inbounds [512 x i8], ptr %11, i64 0, i64 0
  %13 = getelementptr inbounds i8, ptr %12, i64 10
  %14 = getelementptr inbounds i8, ptr %13, i64 1
  %15 = load ptr, ptr %5, align 8, !tbaa !83
  %16 = icmp ugt ptr %14, %15
  br i1 %16, label %17, label %20

17:                                               ; preds = %2
  %18 = load ptr, ptr %3, align 8, !tbaa !81
  %19 = getelementptr inbounds nuw %struct.CTRepr, ptr %18, i32 0, i32 5
  store i32 0, ptr %19, align 4, !tbaa !78
  store i32 1, ptr %6, align 4
  br label %38

20:                                               ; preds = %2
  br label %21

21:                                               ; preds = %28, %20
  %22 = load i32, ptr %4, align 4, !tbaa !21
  %23 = urem i32 %22, 10
  %24 = add i32 48, %23
  %25 = trunc i32 %24 to i8
  %26 = load ptr, ptr %5, align 8, !tbaa !83
  %27 = getelementptr inbounds i8, ptr %26, i32 -1
  store ptr %27, ptr %5, align 8, !tbaa !83
  store i8 %25, ptr %27, align 1, !tbaa !55
  br label %28

28:                                               ; preds = %21
  %29 = load i32, ptr %4, align 4, !tbaa !21
  %30 = udiv i32 %29, 10
  store i32 %30, ptr %4, align 4, !tbaa !21
  %31 = icmp ne i32 %30, 0
  br i1 %31, label %21, label %32, !llvm.loop !107

32:                                               ; preds = %28
  %33 = load ptr, ptr %5, align 8, !tbaa !83
  %34 = load ptr, ptr %3, align 8, !tbaa !81
  %35 = getelementptr inbounds nuw %struct.CTRepr, ptr %34, i32 0, i32 0
  store ptr %33, ptr %35, align 8, !tbaa !65
  %36 = load ptr, ptr %3, align 8, !tbaa !81
  %37 = getelementptr inbounds nuw %struct.CTRepr, ptr %36, i32 0, i32 4
  store i32 0, ptr %37, align 8, !tbaa !79
  store i32 0, ptr %6, align 4
  br label %38

38:                                               ; preds = %32, %17
  call void @llvm.lifetime.end.p0(i64 8, ptr %5) #8
  %39 = load i32, ptr %6, align 4
  switch i32 %39, label %41 [
    i32 0, label %40
    i32 1, label %40
  ]

40:                                               ; preds = %38, %38
  ret void

41:                                               ; preds = %38
  unreachable
}

; Function Attrs: nounwind uwtable
define internal void @ctype_prepc(ptr noundef %0, i32 noundef %1) #0 {
  %3 = alloca ptr, align 8
  %4 = alloca i32, align 4
  store ptr %0, ptr %3, align 8, !tbaa !81
  store i32 %1, ptr %4, align 4, !tbaa !21
  %5 = load ptr, ptr %3, align 8, !tbaa !81
  %6 = getelementptr inbounds nuw %struct.CTRepr, ptr %5, i32 0, i32 6
  %7 = getelementptr inbounds [512 x i8], ptr %6, i64 0, i64 0
  %8 = load ptr, ptr %3, align 8, !tbaa !81
  %9 = getelementptr inbounds nuw %struct.CTRepr, ptr %8, i32 0, i32 0
  %10 = load ptr, ptr %9, align 8, !tbaa !65
  %11 = icmp uge ptr %7, %10
  br i1 %11, label %12, label %15

12:                                               ; preds = %2
  %13 = load ptr, ptr %3, align 8, !tbaa !81
  %14 = getelementptr inbounds nuw %struct.CTRepr, ptr %13, i32 0, i32 5
  store i32 0, ptr %14, align 4, !tbaa !78
  br label %22

15:                                               ; preds = %2
  %16 = load i32, ptr %4, align 4, !tbaa !21
  %17 = trunc i32 %16 to i8
  %18 = load ptr, ptr %3, align 8, !tbaa !81
  %19 = getelementptr inbounds nuw %struct.CTRepr, ptr %18, i32 0, i32 0
  %20 = load ptr, ptr %19, align 8, !tbaa !65
  %21 = getelementptr inbounds i8, ptr %20, i32 -1
  store ptr %21, ptr %19, align 8, !tbaa !65
  store i8 %17, ptr %21, align 1, !tbaa !55
  br label %22

22:                                               ; preds = %15, %12
  ret void
}

; Function Attrs: nounwind uwtable
define internal void @ctype_prepstr(ptr noundef %0, ptr noundef %1, i32 noundef %2) #0 {
  %4 = alloca ptr, align 8
  %5 = alloca ptr, align 8
  %6 = alloca i32, align 4
  %7 = alloca ptr, align 8
  %8 = alloca i32, align 4
  store ptr %0, ptr %4, align 8, !tbaa !81
  store ptr %1, ptr %5, align 8, !tbaa !83
  store i32 %2, ptr %6, align 4, !tbaa !21
  call void @llvm.lifetime.start.p0(i64 8, ptr %7) #8
  %9 = load ptr, ptr %4, align 8, !tbaa !81
  %10 = getelementptr inbounds nuw %struct.CTRepr, ptr %9, i32 0, i32 0
  %11 = load ptr, ptr %10, align 8, !tbaa !65
  store ptr %11, ptr %7, align 8, !tbaa !83
  %12 = load ptr, ptr %4, align 8, !tbaa !81
  %13 = getelementptr inbounds nuw %struct.CTRepr, ptr %12, i32 0, i32 6
  %14 = getelementptr inbounds [512 x i8], ptr %13, i64 0, i64 0
  %15 = load i32, ptr %6, align 4, !tbaa !21
  %16 = zext i32 %15 to i64
  %17 = getelementptr inbounds nuw i8, ptr %14, i64 %16
  %18 = getelementptr inbounds i8, ptr %17, i64 1
  %19 = load ptr, ptr %7, align 8, !tbaa !83
  %20 = icmp ugt ptr %18, %19
  br i1 %20, label %21, label %24

21:                                               ; preds = %3
  %22 = load ptr, ptr %4, align 8, !tbaa !81
  %23 = getelementptr inbounds nuw %struct.CTRepr, ptr %22, i32 0, i32 5
  store i32 0, ptr %23, align 4, !tbaa !78
  store i32 1, ptr %8, align 4
  br label %58

24:                                               ; preds = %3
  %25 = load ptr, ptr %4, align 8, !tbaa !81
  %26 = getelementptr inbounds nuw %struct.CTRepr, ptr %25, i32 0, i32 4
  %27 = load i32, ptr %26, align 8, !tbaa !79
  %28 = icmp ne i32 %27, 0
  br i1 %28, label %29, label %32

29:                                               ; preds = %24
  %30 = load ptr, ptr %7, align 8, !tbaa !83
  %31 = getelementptr inbounds i8, ptr %30, i32 -1
  store ptr %31, ptr %7, align 8, !tbaa !83
  store i8 32, ptr %31, align 1, !tbaa !55
  br label %32

32:                                               ; preds = %29, %24
  %33 = load ptr, ptr %4, align 8, !tbaa !81
  %34 = getelementptr inbounds nuw %struct.CTRepr, ptr %33, i32 0, i32 4
  store i32 1, ptr %34, align 8, !tbaa !79
  %35 = load i32, ptr %6, align 4, !tbaa !21
  %36 = load ptr, ptr %7, align 8, !tbaa !83
  %37 = zext i32 %35 to i64
  %38 = sub i64 0, %37
  %39 = getelementptr inbounds i8, ptr %36, i64 %38
  store ptr %39, ptr %7, align 8, !tbaa !83
  br label %40

40:                                               ; preds = %44, %32
  %41 = load i32, ptr %6, align 4, !tbaa !21
  %42 = add i32 %41, -1
  store i32 %42, ptr %6, align 4, !tbaa !21
  %43 = icmp ugt i32 %41, 0
  br i1 %43, label %44, label %54

44:                                               ; preds = %40
  %45 = load ptr, ptr %5, align 8, !tbaa !83
  %46 = load i32, ptr %6, align 4, !tbaa !21
  %47 = zext i32 %46 to i64
  %48 = getelementptr inbounds nuw i8, ptr %45, i64 %47
  %49 = load i8, ptr %48, align 1, !tbaa !55
  %50 = load ptr, ptr %7, align 8, !tbaa !83
  %51 = load i32, ptr %6, align 4, !tbaa !21
  %52 = zext i32 %51 to i64
  %53 = getelementptr inbounds nuw i8, ptr %50, i64 %52
  store i8 %49, ptr %53, align 1, !tbaa !55
  br label %40, !llvm.loop !84

54:                                               ; preds = %40
  %55 = load ptr, ptr %7, align 8, !tbaa !83
  %56 = load ptr, ptr %4, align 8, !tbaa !81
  %57 = getelementptr inbounds nuw %struct.CTRepr, ptr %56, i32 0, i32 0
  store ptr %55, ptr %57, align 8, !tbaa !65
  store i32 0, ptr %8, align 4
  br label %58

58:                                               ; preds = %54, %21
  call void @llvm.lifetime.end.p0(i64 8, ptr %7) #8
  %59 = load i32, ptr %8, align 4
  switch i32 %59, label %61 [
    i32 0, label %60
    i32 1, label %60
  ]

60:                                               ; preds = %58, %58
  ret void

61:                                               ; preds = %58
  unreachable
}

; Function Attrs: nounwind uwtable
define internal void @ctype_preptype(ptr noundef %0, ptr noundef %1, i32 noundef %2, ptr noundef %3) #0 {
  %5 = alloca ptr, align 8
  %6 = alloca ptr, align 8
  %7 = alloca i32, align 4
  %8 = alloca ptr, align 8
  %9 = alloca ptr, align 8
  store ptr %0, ptr %5, align 8, !tbaa !81
  store ptr %1, ptr %6, align 8, !tbaa !25
  store i32 %2, ptr %7, align 4, !tbaa !21
  store ptr %3, ptr %8, align 8, !tbaa !83
  %10 = load ptr, ptr %6, align 8, !tbaa !25
  %11 = getelementptr inbounds nuw %struct.CType, ptr %10, i32 0, i32 4
  %12 = getelementptr inbounds nuw %struct.GCRef, ptr %11, i32 0, i32 0
  %13 = load i64, ptr %12, align 8, !tbaa !34
  %14 = inttoptr i64 %13 to ptr
  %15 = icmp ne ptr %14, null
  br i1 %15, label %16, label %28

16:                                               ; preds = %4
  call void @llvm.lifetime.start.p0(i64 8, ptr %9) #8
  %17 = load ptr, ptr %6, align 8, !tbaa !25
  %18 = getelementptr inbounds nuw %struct.CType, ptr %17, i32 0, i32 4
  %19 = getelementptr inbounds nuw %struct.GCRef, ptr %18, i32 0, i32 0
  %20 = load i64, ptr %19, align 8, !tbaa !34
  %21 = inttoptr i64 %20 to ptr
  store ptr %21, ptr %9, align 8, !tbaa !38
  %22 = load ptr, ptr %5, align 8, !tbaa !81
  %23 = load ptr, ptr %9, align 8, !tbaa !38
  %24 = getelementptr inbounds %struct.GCstr, ptr %23, i64 1
  %25 = load ptr, ptr %9, align 8, !tbaa !38
  %26 = getelementptr inbounds nuw %struct.GCstr, ptr %25, i32 0, i32 7
  %27 = load i32, ptr %26, align 4, !tbaa !80
  call void @ctype_prepstr(ptr noundef %22, ptr noundef %24, i32 noundef %27)
  call void @llvm.lifetime.end.p0(i64 8, ptr %9) #8
  br label %50

28:                                               ; preds = %4
  %29 = load ptr, ptr %5, align 8, !tbaa !81
  %30 = getelementptr inbounds nuw %struct.CTRepr, ptr %29, i32 0, i32 4
  %31 = load i32, ptr %30, align 8, !tbaa !79
  %32 = icmp ne i32 %31, 0
  br i1 %32, label %33, label %35

33:                                               ; preds = %28
  %34 = load ptr, ptr %5, align 8, !tbaa !81
  call void @ctype_prepc(ptr noundef %34, i32 noundef 32)
  br label %35

35:                                               ; preds = %33, %28
  %36 = load ptr, ptr %5, align 8, !tbaa !81
  %37 = load ptr, ptr %6, align 8, !tbaa !25
  %38 = load ptr, ptr %5, align 8, !tbaa !81
  %39 = getelementptr inbounds nuw %struct.CTRepr, ptr %38, i32 0, i32 2
  %40 = load ptr, ptr %39, align 8, !tbaa !76
  %41 = getelementptr inbounds nuw %struct.CTState, ptr %40, i32 0, i32 0
  %42 = load ptr, ptr %41, align 8, !tbaa !24
  %43 = ptrtoint ptr %37 to i64
  %44 = ptrtoint ptr %42 to i64
  %45 = sub i64 %43, %44
  %46 = sdiv exact i64 %45, 24
  %47 = trunc i64 %46 to i32
  call void @ctype_prepnum(ptr noundef %36, i32 noundef %47)
  %48 = load ptr, ptr %5, align 8, !tbaa !81
  %49 = getelementptr inbounds nuw %struct.CTRepr, ptr %48, i32 0, i32 4
  store i32 1, ptr %49, align 8, !tbaa !79
  br label %50

50:                                               ; preds = %35, %16
  %51 = load ptr, ptr %5, align 8, !tbaa !81
  %52 = load ptr, ptr %8, align 8, !tbaa !83
  %53 = load ptr, ptr %8, align 8, !tbaa !83
  %54 = call i64 @strlen(ptr noundef %53) #10
  %55 = trunc i64 %54 to i32
  call void @ctype_prepstr(ptr noundef %51, ptr noundef %52, i32 noundef %55)
  %56 = load ptr, ptr %5, align 8, !tbaa !81
  %57 = load i32, ptr %7, align 4, !tbaa !21
  call void @ctype_prepqual(ptr noundef %56, i32 noundef %57)
  ret void
}