; Function Attrs: nofree nounwind memory(readwrite, inaccessiblemem: none) uwtable
define internal fastcc void @ctype_preptype(ptr noundef nonnull captures(address) %0, ptr noundef %1, i32 noundef %2, ptr noundef readonly captures(none) %3) unnamed_addr #10 {
  %5 = getelementptr inbounds nuw i8, ptr %1, i64 16
  %6 = load i64, ptr %5, align 8, !tbaa !22
  %.not = icmp eq i64 %6, 0
  br i1 %.not, label %32, label %7

7:                                                ; preds = %4
  %8 = inttoptr i64 %6 to ptr
  %9 = getelementptr inbounds nuw i8, ptr %8, i64 24
  %10 = getelementptr inbounds nuw i8, ptr %8, i64 20
  %11 = load i32, ptr %10, align 4, !tbaa !70
  %12 = load ptr, ptr %0, align 8, !tbaa !55
  %13 = getelementptr inbounds nuw i8, ptr %0, i64 40
  %14 = zext i32 %11 to i64
  %15 = getelementptr inbounds nuw i8, ptr %13, i64 %14
  %16 = getelementptr inbounds nuw i8, ptr %15, i64 1
  %17 = icmp ugt ptr %16, %12
  br i1 %17, label %18, label %20

18:                                               ; preds = %7
  %19 = getelementptr inbounds nuw i8, ptr %0, i64 36
  store i32 0, ptr %19, align 4, !tbaa !68
  br label %ctype_prepstr.exit

20:                                               ; preds = %7
  %21 = getelementptr inbounds nuw i8, ptr %0, i64 32
  %22 = load i32, ptr %21, align 8, !tbaa !69
  %.not.i = icmp eq i32 %22, 0
  br i1 %.not.i, label %25, label %23

23:                                               ; preds = %20
  %24 = getelementptr inbounds i8, ptr %12, i64 -1
  store i8 32, ptr %24, align 1, !tbaa !45
  br label %25

25:                                               ; preds = %23, %20
  %.0.i = phi ptr [ %24, %23 ], [ %12, %20 ]
  store i32 1, ptr %21, align 8, !tbaa !69
  %26 = sub nsw i64 0, %14
  %27 = getelementptr inbounds i8, ptr %.0.i, i64 %26
  %.not1819.i = icmp eq i32 %11, 0
  br i1 %.not1819.i, label %._crit_edge.i, label %.lr.ph.i

.lr.ph.i:                                         ; preds = %25, %.lr.ph.i
  %indvars.iv.i = phi i64 [ %28, %.lr.ph.i ], [ %14, %25 ]
  %28 = add nsw i64 %indvars.iv.i, -1
  %29 = getelementptr inbounds nuw i8, ptr %9, i64 %28
  %30 = load i8, ptr %29, align 1, !tbaa !45
  %31 = getelementptr inbounds nuw i8, ptr %27, i64 %28
  store i8 %30, ptr %31, align 1, !tbaa !45
  %.not18.wide.i = icmp eq i64 %28, 0
  br i1 %.not18.wide.i, label %._crit_edge.i, label %.lr.ph.i, !llvm.loop !71

._crit_edge.i:                                    ; preds = %.lr.ph.i, %25
  store ptr %27, ptr %0, align 8, !tbaa !55
  br label %ctype_prepstr.exit

32:                                               ; preds = %4
  %33 = getelementptr inbounds nuw i8, ptr %0, i64 32
  %34 = load i32, ptr %33, align 8, !tbaa !69
  %.not15 = icmp eq i32 %34, 0
  %.pre28 = load ptr, ptr %0, align 8, !tbaa !55
  br i1 %.not15, label %ctype_prepc.exit, label %35

35:                                               ; preds = %32
  %36 = getelementptr inbounds nuw i8, ptr %0, i64 40
  %.not.i16 = icmp ult ptr %36, %.pre28
  br i1 %.not.i16, label %39, label %37

37:                                               ; preds = %35
  %38 = getelementptr inbounds nuw i8, ptr %0, i64 36
  store i32 0, ptr %38, align 4, !tbaa !68
  br label %ctype_prepc.exit

39:                                               ; preds = %35
  %40 = getelementptr inbounds i8, ptr %.pre28, i64 -1
  store ptr %40, ptr %0, align 8, !tbaa !55
  store i8 32, ptr %40, align 1, !tbaa !45
  %.pre = load ptr, ptr %0, align 8, !tbaa !55
  br label %ctype_prepc.exit

ctype_prepc.exit:                                 ; preds = %39, %37, %32
  %41 = phi ptr [ %.pre, %39 ], [ %.pre28, %37 ], [ %.pre28, %32 ]
  %42 = getelementptr inbounds nuw i8, ptr %0, i64 51
  %43 = icmp ugt ptr %42, %41
  br i1 %43, label %52, label %.preheader.i.preheader

.preheader.i.preheader:                           ; preds = %ctype_prepc.exit
  %44 = ptrtoint ptr %1 to i64
  %45 = getelementptr inbounds nuw i8, ptr %0, i64 16
  %46 = load ptr, ptr %45, align 8, !tbaa !66
  %47 = load ptr, ptr %46, align 8, !tbaa !19
  %48 = ptrtoint ptr %47 to i64
  %49 = sub i64 %44, %48
  %50 = sdiv exact i64 %49, 24
  %51 = trunc i64 %50 to i32
  br label %.preheader.i

52:                                               ; preds = %ctype_prepc.exit
  %53 = getelementptr inbounds nuw i8, ptr %0, i64 36
  store i32 0, ptr %53, align 4, !tbaa !68
  br label %ctype_prepnum.exit

.preheader.i:                                     ; preds = %.preheader.i.preheader, %.preheader.i
  %.09.i = phi i32 [ %58, %.preheader.i ], [ %51, %.preheader.i.preheader ]
  %.0.i17 = phi ptr [ %57, %.preheader.i ], [ %41, %.preheader.i.preheader ]
  %54 = urem i32 %.09.i, 10
  %55 = trunc nuw nsw i32 %54 to i8
  %56 = or disjoint i8 %55, 48
  %57 = getelementptr inbounds i8, ptr %.0.i17, i64 -1
  store i8 %56, ptr %57, align 1, !tbaa !45
  %58 = udiv i32 %.09.i, 10
  %.not.i18 = icmp ult i32 %.09.i, 10
  br i1 %.not.i18, label %59, label %.preheader.i, !llvm.loop !72

59:                                               ; preds = %.preheader.i
  store ptr %57, ptr %0, align 8, !tbaa !55
  br label %ctype_prepnum.exit

ctype_prepnum.exit:                               ; preds = %52, %59
  %60 = phi ptr [ %41, %52 ], [ %57, %59 ]
  store i32 1, ptr %33, align 8, !tbaa !69
  br label %ctype_prepstr.exit

ctype_prepstr.exit:                               ; preds = %._crit_edge.i, %18, %ctype_prepnum.exit
  %61 = phi ptr [ %27, %._crit_edge.i ], [ %12, %18 ], [ %60, %ctype_prepnum.exit ]
  %62 = tail call i64 @strlen(ptr noundef nonnull dereferenceable(1) %3) #15
  %63 = getelementptr inbounds nuw i8, ptr %0, i64 40
  %64 = and i64 %62, 4294967295
  %65 = getelementptr inbounds nuw i8, ptr %63, i64 %64
  %66 = getelementptr inbounds nuw i8, ptr %65, i64 1
  %67 = icmp ugt ptr %66, %61
  br i1 %67, label %68, label %70

68:                                               ; preds = %ctype_prepstr.exit
  %69 = getelementptr inbounds nuw i8, ptr %0, i64 36
  store i32 0, ptr %69, align 4, !tbaa !68
  br label %ctype_prepstr.exit26

70:                                               ; preds = %ctype_prepstr.exit
  %71 = getelementptr inbounds nuw i8, ptr %0, i64 32
  %72 = load i32, ptr %71, align 8, !tbaa !69
  %.not.i19 = icmp eq i32 %72, 0
  br i1 %.not.i19, label %75, label %73

73:                                               ; preds = %70
  %74 = getelementptr inbounds i8, ptr %61, i64 -1
  store i8 32, ptr %74, align 1, !tbaa !45
  br label %75

75:                                               ; preds = %73, %70
  %.0.i20 = phi ptr [ %74, %73 ], [ %61, %70 ]
  store i32 1, ptr %71, align 8, !tbaa !69
  %76 = sub nsw i64 0, %64
  %77 = getelementptr inbounds i8, ptr %.0.i20, i64 %76
  %.not1819.i21 = icmp eq i64 %64, 0
  br i1 %.not1819.i21, label %._crit_edge.i25, label %.lr.ph.i22

.lr.ph.i22:                                       ; preds = %75, %.lr.ph.i22
  %indvars.iv.i23 = phi i64 [ %78, %.lr.ph.i22 ], [ %64, %75 ]
  %78 = add nsw i64 %indvars.iv.i23, -1
  %79 = getelementptr inbounds nuw i8, ptr %3, i64 %78
  %80 = load i8, ptr %79, align 1, !tbaa !45
  %81 = getelementptr inbounds nuw i8, ptr %77, i64 %78
  store i8 %80, ptr %81, align 1, !tbaa !45
  %.not18.wide.i24 = icmp eq i64 %78, 0
  br i1 %.not18.wide.i24, label %._crit_edge.i25, label %.lr.ph.i22, !llvm.loop !71

._crit_edge.i25:                                  ; preds = %.lr.ph.i22, %75
  store ptr %77, ptr %0, align 8, !tbaa !55
  br label %ctype_prepstr.exit26

ctype_prepstr.exit26:                             ; preds = %68, %._crit_edge.i25
  %82 = phi ptr [ %61, %68 ], [ %77, %._crit_edge.i25 ]
  %83 = and i32 %2, 16777216
  %.not.i27 = icmp eq i32 %83, 0
  br i1 %.not.i27, label %ctype_prepstr.exit.i, label %84

84:                                               ; preds = %ctype_prepstr.exit26
  %85 = getelementptr inbounds nuw i8, ptr %0, i64 49
  %86 = icmp ugt ptr %85, %82
  br i1 %86, label %87, label %89

87:                                               ; preds = %84
  %88 = getelementptr inbounds nuw i8, ptr %0, i64 36
  store i32 0, ptr %88, align 4, !tbaa !68
  br label %ctype_prepstr.exit.i

89:                                               ; preds = %84
  %90 = getelementptr inbounds nuw i8, ptr %0, i64 32
  %91 = load i32, ptr %90, align 8, !tbaa !69
  %.not.i.i = icmp eq i32 %91, 0
  br i1 %.not.i.i, label %94, label %92

92:                                               ; preds = %89
  %93 = getelementptr inbounds i8, ptr %82, i64 -1
  store i8 32, ptr %93, align 1, !tbaa !45
  br label %94

94:                                               ; preds = %92, %89
  %.0.i.i = phi ptr [ %93, %92 ], [ %82, %89 ]
  store i32 1, ptr %90, align 8, !tbaa !69
  %95 = getelementptr inbounds i8, ptr %.0.i.i, i64 -8
  br label %.lr.ph.i.i

.lr.ph.i.i:                                       ; preds = %.lr.ph.i.i, %94
  %indvars.iv.i.i = phi i64 [ %96, %.lr.ph.i.i ], [ 8, %94 ]
  %96 = add nsw i64 %indvars.iv.i.i, -1
  %97 = getelementptr inbounds nuw i8, ptr @.str.23, i64 %96
  %98 = load i8, ptr %97, align 1, !tbaa !45
  %99 = getelementptr inbounds nuw i8, ptr %95, i64 %96
  store i8 %98, ptr %99, align 1, !tbaa !45
  %.not18.wide.i.i = icmp eq i64 %96, 0
  br i1 %.not18.wide.i.i, label %._crit_edge.i.i, label %.lr.ph.i.i, !llvm.loop !71

._crit_edge.i.i:                                  ; preds = %.lr.ph.i.i
  store ptr %95, ptr %0, align 8, !tbaa !55
  br label %ctype_prepstr.exit.i

ctype_prepstr.exit.i:                             ; preds = %._crit_edge.i.i, %87, %ctype_prepstr.exit26
  %100 = phi ptr [ %95, %._crit_edge.i.i ], [ %82, %87 ], [ %82, %ctype_prepstr.exit26 ]
  %101 = and i32 %2, 33554432
  %.not3.i = icmp eq i32 %101, 0
  br i1 %.not3.i, label %ctype_prepqual.exit, label %102

102:                                              ; preds = %ctype_prepstr.exit.i
  %103 = getelementptr inbounds nuw i8, ptr %0, i64 46
  %104 = icmp ugt ptr %103, %100
  br i1 %104, label %105, label %107

105:                                              ; preds = %102
  %106 = getelementptr inbounds nuw i8, ptr %0, i64 36
  store i32 0, ptr %106, align 4, !tbaa !68
  br label %ctype_prepqual.exit

107:                                              ; preds = %102
  %108 = getelementptr inbounds nuw i8, ptr %0, i64 32
  %109 = load i32, ptr %108, align 8, !tbaa !69
  %.not.i4.i = icmp eq i32 %109, 0
  br i1 %.not.i4.i, label %112, label %110

110:                                              ; preds = %107
  %111 = getelementptr inbounds i8, ptr %100, i64 -1
  store i8 32, ptr %111, align 1, !tbaa !45
  br label %112

112:                                              ; preds = %110, %107
  %.0.i5.i = phi ptr [ %111, %110 ], [ %100, %107 ]
  store i32 1, ptr %108, align 8, !tbaa !69
  %113 = getelementptr inbounds i8, ptr %.0.i5.i, i64 -5
  br label %.lr.ph.i6.i

.lr.ph.i6.i:                                      ; preds = %.lr.ph.i6.i, %112
  %indvars.iv.i7.i = phi i64 [ %114, %.lr.ph.i6.i ], [ 5, %112 ]
  %114 = add nsw i64 %indvars.iv.i7.i, -1
  %115 = getelementptr inbounds nuw i8, ptr @.str.24, i64 %114
  %116 = load i8, ptr %115, align 1, !tbaa !45
  %117 = getelementptr inbounds nuw i8, ptr %113, i64 %114
  store i8 %116, ptr %117, align 1, !tbaa !45
  %.not18.wide.i8.i = icmp eq i64 %114, 0
  br i1 %.not18.wide.i8.i, label %._crit_edge.i9.i, label %.lr.ph.i6.i, !llvm.loop !71

._crit_edge.i9.i:                                 ; preds = %.lr.ph.i6.i
  store ptr %113, ptr %0, align 8, !tbaa !55
  br label %ctype_prepqual.exit

ctype_prepqual.exit:                              ; preds = %ctype_prepstr.exit.i, %105, %._crit_edge.i9.i
  ret void
}